target datalayout = "e-m:e-p270:32:32-p271:32:32-p272:64:64-i64:64-i128:128-f80:128-n8:16:32:64-S128"
target triple = "x86_64-pc-linux-gnu"

%struct.AvifInfoInternalStream = type { ptr, ptr, ptr }
%struct.AvifInfoInternalBox = type { i32, [4 x i8], i32, i32, i32 }

@.str = private unnamed_addr constant [5 x i8] c"ftyp\00", align 1
@.str.1 = private unnamed_addr constant [5 x i8] c"avif\00", align 1
@.str.2 = private unnamed_addr constant [5 x i8] c"avis\00", align 1

; Function Attrs: nounwind uwtable
define internal i32 @AvifInfoInternalSkip(ptr noundef %0, i32 noundef %1) #0 {
  %3 = alloca i32, align 4
  %4 = alloca ptr, align 8
  %5 = alloca i32, align 4
  %6 = alloca ptr, align 8
  %7 = alloca i32, align 4
  store ptr %0, ptr %4, align 8
  store i32 %1, ptr %5, align 4
  %8 = load i32, ptr %5, align 4
  %9 = icmp ugt i32 %8, 0
  br i1 %9, label %10, label %48

10:                                               ; preds = %2
  %11 = load ptr, ptr %4, align 8
  %12 = getelementptr inbounds %struct.AvifInfoInternalStream, ptr %11, i32 0, i32 2
  %13 = load ptr, ptr %12, align 8
  %14 = icmp eq ptr %13, null
  br i1 %14, label %15, label %39

15:                                               ; preds = %10
  br label %16

16:                                               ; preds = %32, %15
  %17 = load i32, ptr %5, align 4
  %18 = icmp ugt i32 %17, 64
  br i1 %18, label %19, label %35

19:                                               ; preds = %16
  br label %20

20:                                               ; preds = %19
  %21 = load ptr, ptr %4, align 8
  %22 = call i32 @AvifInfoInternalRead(ptr noundef %21, i32 noundef 64, ptr noundef %6)
  store i32 %22, ptr %7, align 4
  br label %23

23:                                               ; preds = %20
  %24 = load i32, ptr %7, align 4
  %25 = icmp eq i32 %24, 0
  br i1 %25, label %30, label %26

26:                                               ; preds = %23
  br label %27

27:                                               ; preds = %26
  %28 = load i32, ptr %7, align 4
  store i32 %28, ptr %3, align 4
  br label %49

29:                                               ; No predecessors!
  br label %30

30:                                               ; preds = %29, %23
  br label %31

31:                                               ; preds = %30
  br label %32

32:                                               ; preds = %31
  %33 = load i32, ptr %5, align 4
  %34 = sub i32 %33, 64
  store i32 %34, ptr %5, align 4
  br label %16

35:                                               ; preds = %16
  %36 = load ptr, ptr %4, align 8
  %37 = load i32, ptr %5, align 4
  %38 = call i32 @AvifInfoInternalRead(ptr noundef %36, i32 noundef %37, ptr noundef %6)
  store i32 %38, ptr %3, align 4
  br label %49

39:                                               ; preds = %10
  %40 = load ptr, ptr %4, align 8
  %41 = getelementptr inbounds %struct.AvifInfoInternalStream, ptr %40, i32 0, i32 2
  %42 = load ptr, ptr %41, align 8
  %43 = load ptr, ptr %4, align 8
  %44 = getelementptr inbounds %struct.AvifInfoInternalStream, ptr %43, i32 0, i32 0
  %45 = load ptr, ptr %44, align 8
  %46 = load i32, ptr %5, align 4
  %47 = zext i32 %46 to i64
  call void %42(ptr noundef %45, i64 noundef %47)
  br label %48

48:                                               ; preds = %39, %2
  store i32 0, ptr %3, align 4
  br label %49

49:                                               ; preds = %48, %35, %27
  %50 = load i32, ptr %3, align 4
  ret i32 %50
}

; Function Attrs: nounwind uwtable
define internal i32 @AvifInfoInternalRead(ptr noundef %0, i32 noundef %1, ptr noundef %2) #0 {
  %4 = alloca i32, align 4
  %5 = alloca ptr, align 8
  %6 = alloca i32, align 4
  %7 = alloca ptr, align 8
  store ptr %0, ptr %5, align 8
  store i32 %1, ptr %6, align 4
  store ptr %2, ptr %7, align 8
  %8 = load ptr, ptr %5, align 8
  %9 = getelementptr inbounds %struct.AvifInfoInternalStream, ptr %8, i32 0, i32 1
  %10 = load ptr, ptr %9, align 8
  %11 = load ptr, ptr %5, align 8
  %12 = getelementptr inbounds %struct.AvifInfoInternalStream, ptr %11, i32 0, i32 0
  %13 = load ptr, ptr %12, align 8
  %14 = load i32, ptr %6, align 4
  %15 = zext i32 %14 to i64
  %16 = call ptr %10(ptr noundef %13, i64 noundef %15)
  %17 = load ptr, ptr %7, align 8
  store ptr %16, ptr %17, align 8
  br label %18

18:                                               ; preds = %3
  %19 = load ptr, ptr %7, align 8
  %20 = load ptr, ptr %19, align 8
  %21 = icmp ne ptr %20, null
  br i1 %21, label %25, label %22

22:                                               ; preds = %18
  br label %23

23:                                               ; preds = %22
  store i32 2, ptr %4, align 4
  br label %27

24:                                               ; No predecessors!
  br label %25

25:                                               ; preds = %24, %18
  br label %26

26:                                               ; preds = %25
  store i32 0, ptr %4, align 4
  br label %27

27:                                               ; preds = %26, %23
  %28 = load i32, ptr %4, align 4
  ret i32 %28
}

; Function Attrs: nounwind uwtable
define internal i32 @AvifInfoInternalConvertStatus(i32 noundef %0) #0 {
  %2 = alloca i32, align 4
  store i32 %0, ptr %2, align 4
  %3 = load i32, ptr %2, align 4
  %4 = icmp eq i32 %3, 0
  br i1 %4, label %5, label %6

5:                                                ; preds = %1
  br label %19

6:                                                ; preds = %1
  %7 = load i32, ptr %2, align 4
  %8 = icmp eq i32 %7, 1
  br i1 %8, label %12, label %9

9:                                                ; preds = %6
  %10 = load i32, ptr %2, align 4
  %11 = icmp eq i32 %10, 2
  br i1 %11, label %12, label %13

12:                                               ; preds = %9, %6
  br label %17

13:                                               ; preds = %9
  %14 = load i32, ptr %2, align 4
  %15 = icmp eq i32 %14, 3
  %16 = select i1 %15, i32 2, i32 3
  br label %17

17:                                               ; preds = %13, %12
  %18 = phi i32 [ 1, %12 ], [ %16, %13 ]
  br label %19

19:                                               ; preds = %17, %5
  %20 = phi i32 [ 0, %5 ], [ %18, %17 ]
  ret i32 %20
}

; Function Attrs: nounwind uwtable
define internal i32 @ParseFtyp(ptr noundef %0) #0 {
  %2 = alloca i32, align 4
  %3 = alloca ptr, align 8
  %4 = alloca %struct.AvifInfoInternalBox, align 4
  %5 = alloca i32, align 4
  %6 = alloca i32, align 4
  %7 = alloca i32, align 4
  %8 = alloca ptr, align 8
  %9 = alloca i32, align 4
  %10 = alloca i32, align 4
  store ptr %0, ptr %3, align 8
  store i32 0, ptr %5, align 4
  br label %11

11:                                               ; preds = %1
  %12 = load ptr, ptr %3, align 8
  %13 = call i32 @AvifInfoInternalParseBox(ptr noundef %12, i32 noundef -1, ptr noundef %5, ptr noundef %4)
  store i32 %13, ptr %6, align 4
  br label %14

14:                                               ; preds = %11
  %15 = load i32, ptr %6, align 4
  %16 = icmp eq i32 %15, 0
  br i1 %16, label %21, label %17

17:                                               ; preds = %14
  br label %18

18:                                               ; preds = %17
  %19 = load i32, ptr %6, align 4
  store i32 %19, ptr %2, align 4
  br label %107

20:                                               ; No predecessors!
  br label %21

21:                                               ; preds = %20, %14
  br label %22

22:                                               ; preds = %21
  br label %23

23:                                               ; preds = %22
  br label %24

24:                                               ; preds = %23
  %25 = getelementptr inbounds %struct.AvifInfoInternalBox, ptr %4, i32 0, i32 1
  %26 = getelementptr inbounds [4 x i8], ptr %25, i64 0, i64 0
  %27 = call i32 @memcmp(ptr noundef %26, ptr noundef @.str, i64 noundef 4) #4
  %28 = icmp ne i32 %27, 0
  br i1 %28, label %29, label %32

29:                                               ; preds = %24
  br label %30

30:                                               ; preds = %29
  store i32 4, ptr %2, align 4
  br label %107

31:                                               ; No predecessors!
  br label %32

32:                                               ; preds = %31, %24
  br label %33

33:                                               ; preds = %32
  br label %34

34:                                               ; preds = %33
  %35 = getelementptr inbounds %struct.AvifInfoInternalBox, ptr %4, i32 0, i32 4
  %36 = load i32, ptr %35, align 4
  %37 = icmp uge i32 %36, 8
  br i1 %37, label %41, label %38

38:                                               ; preds = %34
  br label %39

39:                                               ; preds = %38
  store i32 4, ptr %2, align 4
  br label %107

40:                                               ; No predecessors!
  br label %41

41:                                               ; preds = %40, %34
  br label %42

42:                                               ; preds = %41
  store i32 0, ptr %7, align 4
  br label %43

43:                                               ; preds = %102, %42
  %44 = load i32, ptr %7, align 4
  %45 = add i32 %44, 4
  %46 = getelementptr inbounds %struct.AvifInfoInternalBox, ptr %4, i32 0, i32 4
  %47 = load i32, ptr %46, align 4
  %48 = icmp ule i32 %45, %47
  br i1 %48, label %49, label %105

49:                                               ; preds = %43
  br label %50

50:                                               ; preds = %49
  %51 = load ptr, ptr %3, align 8
  %52 = call i32 @AvifInfoInternalRead(ptr noundef %51, i32 noundef 4, ptr noundef %8)
  store i32 %52, ptr %9, align 4
  br label %53

53:                                               ; preds = %50
  %54 = load i32, ptr %9, align 4
  %55 = icmp eq i32 %54, 0
  br i1 %55, label %60, label %56

56:                                               ; preds = %53
  br label %57

57:                                               ; preds = %56
  %58 = load i32, ptr %9, align 4
  store i32 %58, ptr %2, align 4
  br label %107

59:                                               ; No predecessors!
  br label %60

60:                                               ; preds = %59, %53
  br label %61

61:                                               ; preds = %60
  br label %62

62:                                               ; preds = %61
  %63 = load i32, ptr %7, align 4
  %64 = icmp eq i32 %63, 4
  br i1 %64, label %65, label %66

65:                                               ; preds = %62
  br label %102

66:                                               ; preds = %62
  %67 = load ptr, ptr %8, align 8
  %68 = call i32 @memcmp(ptr noundef %67, ptr noundef @.str.1, i64 noundef 4) #4
  %69 = icmp ne i32 %68, 0
  br i1 %69, label %70, label %74

70:                                               ; preds = %66
  %71 = load ptr, ptr %8, align 8
  %72 = call i32 @memcmp(ptr noundef %71, ptr noundef @.str.2, i64 noundef 4) #4
  %73 = icmp ne i32 %72, 0
  br i1 %73, label %93, label %74

74:                                               ; preds = %70, %66
  br label %75

75:                                               ; preds = %74
  %76 = load ptr, ptr %3, align 8
  %77 = getelementptr inbounds %struct.AvifInfoInternalBox, ptr %4, i32 0, i32 4
  %78 = load i32, ptr %77, align 4
  %79 = load i32, ptr %7, align 4
  %80 = add i32 %79, 4
  %81 = sub i32 %78, %80
  %82 = call i32 @AvifInfoInternalSkip(ptr noundef %76, i32 noundef %81)
  store i32 %82, ptr %10, align 4
  br label %83

83:                                               ; preds = %75
  %84 = load i32, ptr %10, align 4
  %85 = icmp eq i32 %84, 0
  br i1 %85, label %90, label %86

86:                                               ; preds = %83
  br label %87

87:                                               ; preds = %86
  %88 = load i32, ptr %10, align 4
  store i32 %88, ptr %2, align 4
  br label %107

89:                                               ; No predecessors!
  br label %90

90:                                               ; preds = %89, %83
  br label %91

91:                                               ; preds = %90
  br label %92

92:                                               ; preds = %91
  store i32 0, ptr %2, align 4
  br label %107

93:                                               ; preds = %70
  br label %94

94:                                               ; preds = %93
  %95 = load i32, ptr %7, align 4
  %96 = icmp ule i32 %95, 128
  br i1 %96, label %100, label %97

97:                                               ; preds = %94
  br label %98

98:                                               ; preds = %97
  store i32 3, ptr %2, align 4
  br label %107

99:                                               ; No predecessors!
  br label %100

100:                                              ; preds = %99, %94
  br label %101

101:                                              ; preds = %100
  br label %102

102:                                              ; preds = %101, %65
  %103 = load i32, ptr %7, align 4
  %104 = add i32 %103, 4
  store i32 %104, ptr %7, align 4
  br label %43

105:                                              ; preds = %43
  br label %106

106:                                              ; preds = %105
  store i32 4, ptr %2, align 4
  br label %107

107:                                              ; preds = %106, %98, %92, %87, %57, %39, %30, %18
  %108 = load i32, ptr %2, align 4
  ret i32 %108
}

; Function Attrs: nounwind uwtable
define hidden i32 @AvifInfoIdentifyStream(ptr noundef %0, ptr noundef %1, ptr noundef %2) #0 {
  %4 = alloca i32, align 4
  %5 = alloca ptr, align 8
  %6 = alloca ptr, align 8
  %7 = alloca ptr, align 8
  %8 = alloca %struct.AvifInfoInternalStream, align 8
  store ptr %0, ptr %5, align 8
  store ptr %1, ptr %6, align 8
  store ptr %2, ptr %7, align 8
  %9 = load ptr, ptr %6, align 8
  %10 = icmp eq ptr %9, null
  br i1 %10, label %11, label %12

11:                                               ; preds = %3
  store i32 1, ptr %4, align 4
  br label %21

12:                                               ; preds = %3
  %13 = load ptr, ptr %5, align 8
  %14 = getelementptr inbounds %struct.AvifInfoInternalStream, ptr %8, i32 0, i32 0
  store ptr %13, ptr %14, align 8
  %15 = load ptr, ptr %6, align 8
  %16 = getelementptr inbounds %struct.AvifInfoInternalStream, ptr %8, i32 0, i32 1
  store ptr %15, ptr %16, align 8
  %17 = load ptr, ptr %7, align 8
  %18 = getelementptr inbounds %struct.AvifInfoInternalStream, ptr %8, i32 0, i32 2
  store ptr %17, ptr %18, align 8
  %19 = call i32 @ParseFtyp(ptr noundef %8)
  %20 = call i32 @AvifInfoInternalConvertStatus(i32 noundef %19)
  store i32 %20, ptr %4, align 4
  br label %21

21:                                               ; preds = %12, %11
  %22 = load i32, ptr %4, align 4
  ret i32 %22
}