; Function Attrs: nounwind uwtable
define hidden noundef i32 @AvifInfoIdentifyStream(ptr noundef %0, ptr noundef %1, ptr noundef %2) local_unnamed_addr #0 {
  %4 = alloca %struct.AvifInfoInternalBox, align 4
  %5 = alloca i32, align 4
  %6 = alloca %struct.AvifInfoInternalStream, align 8
  %7 = icmp eq ptr %1, null
  br i1 %7, label %43, label %8

8:                                                ; preds = %3
  store ptr %0, ptr %6, align 8
  %9 = getelementptr inbounds i8, ptr %6, i64 8
  store ptr %1, ptr %9, align 8
  %10 = getelementptr inbounds i8, ptr %6, i64 16
  store ptr %2, ptr %10, align 8
  call void @llvm.lifetime.start.p0(i64 20, ptr nonnull %4)
  call void @llvm.lifetime.start.p0(i64 4, ptr nonnull %5)
  store i32 0, ptr %5, align 4
  %11 = call fastcc i32 @AvifInfoInternalParseBox(ptr noundef nonnull %6, i32 noundef -1, ptr noundef nonnull %5, ptr noundef nonnull %4)
  %12 = icmp eq i32 %11, 0
  br i1 %12, label %13, label %ParseFtyp.exit

13:                                               ; preds = %8
  %14 = getelementptr inbounds i8, ptr %4, i64 4
  %lhsv.i = load i32, ptr %14, align 4
  %.not.i = icmp eq i32 %lhsv.i, 1887007846
  br i1 %.not.i, label %15, label %ParseFtyp.exit.thread

15:                                               ; preds = %13
  %16 = getelementptr inbounds i8, ptr %4, i64 16
  %17 = load i32, ptr %16, align 4
  %18 = icmp ugt i32 %17, 7
  br i1 %18, label %.preheader.i, label %ParseFtyp.exit.thread

.preheader.i:                                     ; preds = %15, %40
  %19 = phi i32 [ %41, %40 ], [ 4, %15 ]
  %.01429.i = phi i32 [ %19, %40 ], [ 0, %15 ]
  %20 = tail call ptr %1(ptr noundef %0, i64 noundef 4) #9
  %.not.i.not.i = icmp eq ptr %20, null
  br i1 %.not.i.not.i, label %ParseFtyp.exit.thread.thread, label %21

21:                                               ; preds = %.preheader.i
  %22 = icmp eq i32 %.01429.i, 4
  br i1 %22, label %40, label %23

23:                                               ; preds = %21
  %bcmp.i = tail call i32 @bcmp(ptr noundef nonnull dereferenceable(4) %20, ptr noundef nonnull dereferenceable(4) @.str.1, i64 4)
  %.not20.i = icmp eq i32 %bcmp.i, 0
  br i1 %.not20.i, label %25, label %24

24:                                               ; preds = %23
  %bcmp21.i = tail call i32 @bcmp(ptr noundef nonnull dereferenceable(4) %20, ptr noundef nonnull dereferenceable(4) @.str.2, i64 4)
  %.not22.i = icmp eq i32 %bcmp21.i, 0
  br i1 %.not22.i, label %25, label %38

25:                                               ; preds = %24, %23
  %26 = sub i32 %17, %19
  %.not.i24.i = icmp eq i32 %26, 0
  br i1 %.not.i24.i, label %ParseFtyp.exit.thread.thread.thread, label %27

27:                                               ; preds = %25
  %28 = icmp eq ptr %2, null
  br i1 %28, label %.preheader.i.i, label %36

.preheader.i.i:                                   ; preds = %27
  %29 = icmp ugt i32 %26, 64
  br i1 %29, label %.lr.ph.i.i, label %._crit_edge.i.i

.lr.ph.i.i:                                       ; preds = %.preheader.i.i, %31
  %.01222.i.i = phi i32 [ %32, %31 ], [ %26, %.preheader.i.i ]
  %30 = tail call ptr %1(ptr noundef %0, i64 noundef 64) #9
  %.not.i.not.i.i = icmp eq ptr %30, null
  br i1 %.not.i.not.i.i, label %ParseFtyp.exit.thread.thread, label %31

31:                                               ; preds = %.lr.ph.i.i
  %32 = add i32 %.01222.i.i, -64
  %33 = icmp ugt i32 %32, 64
  br i1 %33, label %.lr.ph.i.i, label %._crit_edge.i.i

._crit_edge.i.i:                                  ; preds = %31, %.preheader.i.i
  %.012.lcssa.i.i = phi i32 [ %26, %.preheader.i.i ], [ %32, %31 ]
  %34 = zext nneg i32 %.012.lcssa.i.i to i64
  %35 = tail call ptr %1(ptr noundef %0, i64 noundef %34) #9
  %.not.i19.i.i = icmp eq ptr %35, null
  br i1 %.not.i19.i.i, label %ParseFtyp.exit.thread.thread, label %ParseFtyp.exit.thread.thread.thread

36:                                               ; preds = %27
  %37 = zext i32 %26 to i64
  tail call void %2(ptr noundef %0, i64 noundef %37) #9
  br label %ParseFtyp.exit.thread.thread.thread

38:                                               ; preds = %24
  %39 = icmp ult i32 %.01429.i, 129
  br i1 %39, label %40, label %.thread19

.thread19:                                        ; preds = %38
  call void @llvm.lifetime.end.p0(i64 20, ptr nonnull %4)
  call void @llvm.lifetime.end.p0(i64 4, ptr nonnull %5)
  br label %43

40:                                               ; preds = %38, %21
  %41 = add nuw nsw i32 %19, 4
  %.not19.i = icmp ugt i32 %41, %17
  br i1 %.not19.i, label %ParseFtyp.exit.thread, label %.preheader.i

ParseFtyp.exit.thread.thread.thread:              ; preds = %._crit_edge.i.i, %36, %25
  call void @llvm.lifetime.end.p0(i64 20, ptr nonnull %4)
  call void @llvm.lifetime.end.p0(i64 4, ptr nonnull %5)
  br label %43

ParseFtyp.exit.thread.thread:                     ; preds = %.preheader.i, %.lr.ph.i.i, %._crit_edge.i.i
  call void @llvm.lifetime.end.p0(i64 20, ptr nonnull %4)
  call void @llvm.lifetime.end.p0(i64 4, ptr nonnull %5)
  br label %43

ParseFtyp.exit.thread:                            ; preds = %40, %13, %15
  call void @llvm.lifetime.end.p0(i64 20, ptr nonnull %4)
  call void @llvm.lifetime.end.p0(i64 4, ptr nonnull %5)
  br label %43

ParseFtyp.exit:                                   ; preds = %8
  call void @llvm.lifetime.end.p0(i64 20, ptr nonnull %4)
  call void @llvm.lifetime.end.p0(i64 4, ptr nonnull %5)
  %or.cond.i = icmp ult i32 %11, 3
  %42 = icmp eq i32 %11, 3
  %. = select i1 %42, i32 2, i32 3
  %spec.select = select i1 %or.cond.i, i32 1, i32 %.
  br label %43

43:                                               ; preds = %ParseFtyp.exit, %ParseFtyp.exit.thread, %ParseFtyp.exit.thread.thread, %ParseFtyp.exit.thread.thread.thread, %.thread19, %3
  %.0 = phi i32 [ 1, %3 ], [ 0, %ParseFtyp.exit.thread.thread.thread ], [ 2, %.thread19 ], [ 1, %ParseFtyp.exit.thread.thread ], [ 3, %ParseFtyp.exit.thread ], [ %spec.select, %ParseFtyp.exit ]
  ret i32 %.0
}